target datalayout = "e-m:e-p270:32:32-p271:32:32-p272:64:64-i64:64-i128:128-f80:128-n8:16:32:64-S128"
target triple = "x86_64-unknown-linux-gnu"

%"class.OpenColorIO_v2_4dev::RangeOpData" = type <{ %"class.OpenColorIO_v2_4dev::OpData", double, double, double, double, double, double, i32, i32, i32, [4 x i8] }>
%"class.OpenColorIO_v2_4dev::OpData" = type { ptr, %"class.std::mutex", %"class.OpenColorIO_v2_4dev::FormatMetadataImpl" }
%"class.std::mutex" = type { %"class.std::__mutex_base" }
%"class.std::__mutex_base" = type { %union.pthread_mutex_t }
%union.pthread_mutex_t = type { %struct.__pthread_mutex_s }
%struct.__pthread_mutex_s = type { i32, i32, i32, i32, i32, i16, i16, %struct.__pthread_internal_list }
%struct.__pthread_internal_list = type { ptr, ptr }
%"class.OpenColorIO_v2_4dev::FormatMetadataImpl" = type { %"class.OpenColorIO_v2_4dev::FormatMetadata", %"class.std::__cxx11::basic_string", %"class.std::__cxx11::basic_string", %"class.std::vector", %"class.std::vector.3" }
%"class.OpenColorIO_v2_4dev::FormatMetadata" = type { ptr }
%"class.std::__cxx11::basic_string" = type { %"struct.std::__cxx11::basic_string<char>::_Alloc_hider", i64, %union.anon }
%"struct.std::__cxx11::basic_string<char>::_Alloc_hider" = type { ptr }
%union.anon = type { i64, [8 x i8] }
%"class.std::vector" = type { %"struct.std::_Vector_base" }
%"struct.std::_Vector_base" = type { %"struct.std::_Vector_base<std::pair<std::__cxx11::basic_string<char>, std::__cxx11::basic_string<char>>, std::allocator<std::pair<std::__cxx11::basic_string<char>, std::__cxx11::basic_string<char>>>>::_Vector_impl" }
%"struct.std::_Vector_base<std::pair<std::__cxx11::basic_string<char>, std::__cxx11::basic_string<char>>, std::allocator<std::pair<std::__cxx11::basic_string<char>, std::__cxx11::basic_string<char>>>>::_Vector_impl" = type { %"struct.std::_Vector_base<std::pair<std::__cxx11::basic_string<char>, std::__cxx11::basic_string<char>>, std::allocator<std::pair<std::__cxx11::basic_string<char>, std::__cxx11::basic_string<char>>>>::_Vector_impl_data" }
%"struct.std::_Vector_base<std::pair<std::__cxx11::basic_string<char>, std::__cxx11::basic_string<char>>, std::allocator<std::pair<std::__cxx11::basic_string<char>, std::__cxx11::basic_string<char>>>>::_Vector_impl_data" = type { ptr, ptr, ptr }
%"class.std::vector.3" = type { %"struct.std::_Vector_base.4" }
%"struct.std::_Vector_base.4" = type { %"struct.std::_Vector_base<OpenColorIO_v2_4dev::FormatMetadataImpl, std::allocator<OpenColorIO_v2_4dev::FormatMetadataImpl>>::_Vector_impl" }
%"struct.std::_Vector_base<OpenColorIO_v2_4dev::FormatMetadataImpl, std::allocator<OpenColorIO_v2_4dev::FormatMetadataImpl>>::_Vector_impl" = type { %"struct.std::_Vector_base<OpenColorIO_v2_4dev::FormatMetadataImpl, std::allocator<OpenColorIO_v2_4dev::FormatMetadataImpl>>::_Vector_impl_data" }
%"struct.std::_Vector_base<OpenColorIO_v2_4dev::FormatMetadataImpl, std::allocator<OpenColorIO_v2_4dev::FormatMetadataImpl>>::_Vector_impl_data" = type { ptr, ptr, ptr }

; Function Attrs: mustprogress nounwind uwtable
define linkonce_odr noundef zeroext i1 @_ZSt5isnanf(float noundef %__x) #5 comdat {
entry:
  %__x.addr = alloca float, align 4
  store float %__x, ptr %__x.addr, align 4
  %0 = load float, ptr %__x.addr, align 4
  %1 = call i1 @llvm.is.fpclass.f32(float %0, i32 3)
  ret i1 %1
}

; Function Attrs: mustprogress uwtable
define linkonce_odr hidden noundef zeroext i1 @_ZN19OpenColorIO_v2_4dev5IsNanIfEEbT_(float noundef %val) #4 comdat {
entry:
  %val.addr = alloca float, align 4
  store float %val, ptr %val.addr, align 4
  %0 = load float, ptr %val.addr, align 4
  %call = call noundef zeroext i1 @_ZSt5isnanf(float noundef %0)
  ret i1 %call
}

; Function Attrs: mustprogress uwtable
define hidden noundef zeroext i1 @_ZNK19OpenColorIO_v2_4dev11RangeOpData10maxIsEmptyEv(ptr noundef nonnull align 8 dereferenceable(228) %this) #4 align 2 {
entry:
  %this.addr = alloca ptr, align 8
  store ptr %this, ptr %this.addr, align 8
  %this1 = load ptr, ptr %this.addr, align 8
  %m_maxInValue = getelementptr inbounds %"class.OpenColorIO_v2_4dev::RangeOpData", ptr %this1, i32 0, i32 2
  %0 = load double, ptr %m_maxInValue, align 8
  %conv = fptrunc double %0 to float
  %call = call noundef zeroext i1 @_ZN19OpenColorIO_v2_4dev5IsNanIfEEbT_(float noundef %conv)
  %conv2 = zext i1 %call to i32
  %cmp = icmp ne i32 %conv2, 0
  ret i1 %cmp
}

; Function Attrs: mustprogress uwtable
define hidden noundef zeroext i1 @_ZNK19OpenColorIO_v2_4dev11RangeOpData10minIsEmptyEv(ptr noundef nonnull align 8 dereferenceable(228) %this) #4 align 2 {
entry:
  %this.addr = alloca ptr, align 8
  store ptr %this, ptr %this.addr, align 8
  %this1 = load ptr, ptr %this.addr, align 8
  %m_minInValue = getelementptr inbounds %"class.OpenColorIO_v2_4dev::RangeOpData", ptr %this1, i32 0, i32 1
  %0 = load double, ptr %m_minInValue, align 8
  %conv = fptrunc double %0 to float
  %call = call noundef zeroext i1 @_ZN19OpenColorIO_v2_4dev5IsNanIfEEbT_(float noundef %conv)
  %conv2 = zext i1 %call to i32
  %cmp = icmp ne i32 %conv2, 0
  ret i1 %cmp
}

; Function Attrs: mustprogress nounwind uwtable
define linkonce_odr hidden noundef i32 @_ZNK19OpenColorIO_v2_4dev11RangeOpData21getFileOutputBitDepthEv(ptr noundef nonnull align 8 dereferenceable(228) %this) #5 comdat align 2 {
entry:
  %this.addr = alloca ptr, align 8
  store ptr %this, ptr %this.addr, align 8
  %this1 = load ptr, ptr %this.addr, align 8
  %m_fileOutBitDepth = getelementptr inbounds %"class.OpenColorIO_v2_4dev::RangeOpData", ptr %this1, i32 0, i32 8
  %0 = load i32, ptr %m_fileOutBitDepth, align 4
  ret i32 %0
}

; Function Attrs: mustprogress nounwind uwtable
define linkonce_odr hidden noundef i32 @_ZNK19OpenColorIO_v2_4dev11RangeOpData20getFileInputBitDepthEv(ptr noundef nonnull align 8 dereferenceable(228) %this) #5 comdat align 2 {
entry:
  %this.addr = alloca ptr, align 8
  store ptr %this, ptr %this.addr, align 8
  %this1 = load ptr, ptr %this.addr, align 8
  %m_fileInBitDepth = getelementptr inbounds %"class.OpenColorIO_v2_4dev::RangeOpData", ptr %this1, i32 0, i32 7
  %0 = load i32, ptr %m_fileInBitDepth, align 8
  ret i32 %0
}

; Function Attrs: mustprogress uwtable
define hidden void @_ZN19OpenColorIO_v2_4dev11RangeOpData9normalizeEv(ptr noundef nonnull align 8 dereferenceable(228) %this) #4 align 2 {
entry:
  %this.addr = alloca ptr, align 8
  %inScale = alloca double, align 8
  %outScale = alloca double, align 8
  store ptr %this, ptr %this.addr, align 8
  %this1 = load ptr, ptr %this.addr, align 8
  %call = call noundef i32 @_ZNK19OpenColorIO_v2_4dev11RangeOpData20getFileInputBitDepthEv(ptr noundef nonnull align 8 dereferenceable(228) %this1)
  %call2 = call noundef double @_ZN19OpenColorIO_v2_4dev19GetBitDepthMaxValueENS_8BitDepthE(i32 noundef %call)
  %div = fdiv double 1.000000e+00, %call2
  store double %div, ptr %inScale, align 8
  %call3 = call noundef i32 @_ZNK19OpenColorIO_v2_4dev11RangeOpData21getFileOutputBitDepthEv(ptr noundef nonnull align 8 dereferenceable(228) %this1)
  %call4 = call noundef double @_ZN19OpenColorIO_v2_4dev19GetBitDepthMaxValueENS_8BitDepthE(i32 noundef %call3)
  %div5 = fdiv double 1.000000e+00, %call4
  store double %div5, ptr %outScale, align 8
  %call6 = call noundef zeroext i1 @_ZNK19OpenColorIO_v2_4dev11RangeOpData10minIsEmptyEv(ptr noundef nonnull align 8 dereferenceable(228) %this1)
  br i1 %call6, label %if.end, label %if.then

if.then:                                          ; preds = %entry
  %0 = load double, ptr %inScale, align 8
  %m_minInValue = getelementptr inbounds %"class.OpenColorIO_v2_4dev::RangeOpData", ptr %this1, i32 0, i32 1
  %1 = load double, ptr %m_minInValue, align 8
  %mul = fmul double %1, %0
  store double %mul, ptr %m_minInValue, align 8
  br label %if.end

if.end:                                           ; preds = %if.then, %entry
  %call7 = call noundef zeroext i1 @_ZNK19OpenColorIO_v2_4dev11RangeOpData10maxIsEmptyEv(ptr noundef nonnull align 8 dereferenceable(228) %this1)
  br i1 %call7, label %if.end10, label %if.then8

if.then8:                                         ; preds = %if.end
  %2 = load double, ptr %inScale, align 8
  %m_maxInValue = getelementptr inbounds %"class.OpenColorIO_v2_4dev::RangeOpData", ptr %this1, i32 0, i32 2
  %3 = load double, ptr %m_maxInValue, align 8
  %mul9 = fmul double %3, %2
  store double %mul9, ptr %m_maxInValue, align 8
  br label %if.end10

if.end10:                                         ; preds = %if.then8, %if.end
  %call11 = call noundef zeroext i1 @_ZNK19OpenColorIO_v2_4dev11RangeOpData10minIsEmptyEv(ptr noundef nonnull align 8 dereferenceable(228) %this1)
  br i1 %call11, label %if.end14, label %if.then12

if.then12:                                        ; preds = %if.end10
  %4 = load double, ptr %outScale, align 8
  %m_minOutValue = getelementptr inbounds %"class.OpenColorIO_v2_4dev::RangeOpData", ptr %this1, i32 0, i32 3
  %5 = load double, ptr %m_minOutValue, align 8
  %mul13 = fmul double %5, %4
  store double %mul13, ptr %m_minOutValue, align 8
  br label %if.end14

if.end14:                                         ; preds = %if.then12, %if.end10
  %call15 = call noundef zeroext i1 @_ZNK19OpenColorIO_v2_4dev11RangeOpData10maxIsEmptyEv(ptr noundef nonnull align 8 dereferenceable(228) %this1)
  br i1 %call15, label %if.end18, label %if.then16

if.then16:                                        ; preds = %if.end14
  %6 = load double, ptr %outScale, align 8
  %m_maxOutValue = getelementptr inbounds %"class.OpenColorIO_v2_4dev::RangeOpData", ptr %this1, i32 0, i32 4
  %7 = load double, ptr %m_maxOutValue, align 8
  %mul17 = fmul double %7, %6
  store double %mul17, ptr %m_maxOutValue, align 8
  br label %if.end18

if.end18:                                         ; preds = %if.then16, %if.end14
  ret void
}