; Function Attrs: mustprogress uwtable
define hidden void @_ZN19OpenColorIO_v2_4dev11RangeOpData9normalizeEv(ptr nocapture noundef nonnull align 8 dereferenceable(228) %this) local_unnamed_addr #3 align 2 {
entry:
  %m_fileInBitDepth.i = getelementptr inbounds i8, ptr %this, i64 216
  %0 = load i32, ptr %m_fileInBitDepth.i, align 8
  %call2 = tail call noundef double @_ZN19OpenColorIO_v2_4dev19GetBitDepthMaxValueENS_8BitDepthE(i32 noundef %0)
  %div = fdiv double 1.000000e+00, %call2
  %m_fileOutBitDepth.i = getelementptr inbounds i8, ptr %this, i64 220
  %1 = load i32, ptr %m_fileOutBitDepth.i, align 4
  %call4 = tail call noundef double @_ZN19OpenColorIO_v2_4dev19GetBitDepthMaxValueENS_8BitDepthE(i32 noundef %1)
  %div5 = fdiv double 1.000000e+00, %call4
  %m_minInValue.i = getelementptr inbounds i8, ptr %this, i64 168
  %2 = load double, ptr %m_minInValue.i, align 8
  %conv.i = fptrunc double %2 to float
  %3 = fcmp uno float %conv.i, 0.000000e+00
  br i1 %3, label %if.end, label %if.then

if.then:                                          ; preds = %entry
  %mul = fmul double %div, %2
  store double %mul, ptr %m_minInValue.i, align 8
  br label %if.end

if.end:                                           ; preds = %if.then, %entry
  %4 = phi double [ %mul, %if.then ], [ %2, %entry ]
  %m_maxInValue.i = getelementptr inbounds i8, ptr %this, i64 176
  %5 = load double, ptr %m_maxInValue.i, align 8
  %conv.i3 = fptrunc double %5 to float
  %6 = fcmp uno float %conv.i3, 0.000000e+00
  br i1 %6, label %if.end10, label %if.then8

if.then8:                                         ; preds = %if.end
  %mul9 = fmul double %div, %5
  store double %mul9, ptr %m_maxInValue.i, align 8
  br label %if.end10

if.end10:                                         ; preds = %if.then8, %if.end
  %7 = phi double [ %mul9, %if.then8 ], [ %5, %if.end ]
  %conv.i5 = fptrunc double %4 to float
  %8 = fcmp uno float %conv.i5, 0.000000e+00
  br i1 %8, label %if.end14, label %if.then12

if.then12:                                        ; preds = %if.end10
  %m_minOutValue = getelementptr inbounds i8, ptr %this, i64 184
  %9 = load double, ptr %m_minOutValue, align 8
  %mul13 = fmul double %div5, %9
  store double %mul13, ptr %m_minOutValue, align 8
  br label %if.end14

if.end14:                                         ; preds = %if.then12, %if.end10
  %conv.i7 = fptrunc double %7 to float
  %10 = fcmp uno float %conv.i7, 0.000000e+00
  br i1 %10, label %if.end18, label %if.then16

if.then16:                                        ; preds = %if.end14
  %m_maxOutValue = getelementptr inbounds i8, ptr %this, i64 192
  %11 = load double, ptr %m_maxOutValue, align 8
  %mul17 = fmul double %div5, %11
  store double %mul17, ptr %m_maxOutValue, align 8
  br label %if.end18

if.end18:                                         ; preds = %if.then16, %if.end14
  ret void
}